; Function Attrs: mustprogress uwtable
define noundef zeroext i1 @_ZN3g2o7csparse7CSparse7analyzeEv(ptr noundef nonnull readonly align 8 captures(none) dereferenceable(8) %0) local_unnamed_addr #0 align 2 {
  %2 = load ptr, ptr %0, align 8, !tbaa !14
  %3 = load ptr, ptr %2, align 8, !tbaa !52
  %.not.i = icmp eq ptr %3, null
  br i1 %.not.i, label %_ZN3g2o7csparse7CSparse12freeSymbolicEv.exit, label %4

4:                                                ; preds = %1
  %5 = tail call ptr @cs_di_sfree(ptr noundef nonnull %3)
  %6 = load ptr, ptr %0, align 8, !tbaa !14
  store ptr null, ptr %6, align 8, !tbaa !52
  br label %_ZN3g2o7csparse7CSparse12freeSymbolicEv.exit

_ZN3g2o7csparse7CSparse12freeSymbolicEv.exit:     ; preds = %1, %4
  %7 = phi ptr [ %2, %1 ], [ %6, %4 ]
  %8 = getelementptr inbounds nuw i8, ptr %7, i64 40
  %9 = tail call ptr @cs_di_schol(i32 noundef 1, ptr noundef nonnull %8)
  %10 = load ptr, ptr %0, align 8, !tbaa !14
  store ptr %9, ptr %10, align 8, !tbaa !52
  %11 = icmp ne ptr %9, null
  ret i1 %11
}